target datalayout = "e-m:e-p270:32:32-p271:32:32-p272:64:64-i64:64-i128:128-f80:128-n8:16:32:64-S128"
target triple = "x86_64-unknown-linux-gnu"

%"class.std::__cxx11::basic_string" = type { %"struct.std::__cxx11::basic_string<char>::_Alloc_hider", i64, %union.anon }
%"struct.std::__cxx11::basic_string<char>::_Alloc_hider" = type { ptr }
%union.anon = type { i64, [8 x i8] }
%"class.std::__cxx11::basic_ostringstream" = type { %"class.std::basic_ostream.base", %"class.std::__cxx11::basic_stringbuf", %"class.std::basic_ios" }
%"class.std::basic_ostream.base" = type { ptr }
%"class.std::__cxx11::basic_stringbuf" = type { %"class.std::basic_streambuf", i32, %"class.std::__cxx11::basic_string" }
%"class.std::basic_streambuf" = type { ptr, ptr, ptr, ptr, ptr, ptr, ptr, %"class.std::locale" }
%"class.std::locale" = type { ptr }
%"class.std::basic_ios" = type { %"class.std::ios_base", ptr, i8, i8, ptr, ptr, ptr, ptr }
%"class.std::ios_base" = type { ptr, i64, i64, i32, i32, i32, ptr, %"struct.std::ios_base::_Words", [8 x %"struct.std::ios_base::_Words"], i32, ptr, %"class.std::locale" }
%"struct.std::ios_base::_Words" = type { ptr, i64 }

@.str.39 = private unnamed_addr constant [6 x i8] c"ws://\00", align 1

; Function Attrs: mustprogress nounwind uwtable
define internal void @_ZN4node9inspector12_GLOBAL__N_113FormatAddressERKNSt7__cxx1112basic_stringIcSt11char_traitsIcESaIcEEES9_b(ptr noalias sret(%"class.std::__cxx11::basic_string") align 8 %agg.result, ptr noundef nonnull align 8 dereferenceable(32) %host, ptr noundef nonnull align 8 dereferenceable(32) %target_id, i1 noundef zeroext %include_protocol) #0 {
entry:
  %result.ptr = alloca ptr, align 8
  %host.addr = alloca ptr, align 8
  %target_id.addr = alloca ptr, align 8
  %include_protocol.addr = alloca i8, align 1
  %url = alloca %"class.std::__cxx11::basic_ostringstream", align 8
  store ptr %agg.result, ptr %result.ptr, align 8
  store ptr %host, ptr %host.addr, align 8
  store ptr %target_id, ptr %target_id.addr, align 8
  %frombool = zext i1 %include_protocol to i8
  store i8 %frombool, ptr %include_protocol.addr, align 1
  call void @_ZNSt7__cxx1119basic_ostringstreamIcSt11char_traitsIcESaIcEEC1Ev(ptr noundef nonnull align 8 dereferenceable(112) %url)
  %0 = load i8, ptr %include_protocol.addr, align 1
  %tobool = trunc i8 %0 to i1
  br i1 %tobool, label %if.then, label %if.end

if.then:                                          ; preds = %entry
  %call = call noundef nonnull align 8 dereferenceable(8) ptr @_ZStlsISt11char_traitsIcEERSt13basic_ostreamIcT_ES5_PKc(ptr noundef nonnull align 8 dereferenceable(8) %url, ptr noundef @.str.39)
  br label %if.end

if.end:                                           ; preds = %if.then, %entry
  %1 = load ptr, ptr %host.addr, align 8
  %call1 = call noundef nonnull align 8 dereferenceable(8) ptr @_ZStlsIcSt11char_traitsIcESaIcEERSt13basic_ostreamIT_T0_ES7_RKNSt7__cxx1112basic_stringIS4_S5_T1_EE(ptr noundef nonnull align 8 dereferenceable(8) %url, ptr noundef nonnull align 8 dereferenceable(32) %1)
  %call2 = call noundef nonnull align 8 dereferenceable(8) ptr @_ZStlsISt11char_traitsIcEERSt13basic_ostreamIcT_ES5_c(ptr noundef nonnull align 8 dereferenceable(8) %call1, i8 noundef signext 47)
  %2 = load ptr, ptr %target_id.addr, align 8
  %call3 = call noundef nonnull align 8 dereferenceable(8) ptr @_ZStlsIcSt11char_traitsIcESaIcEERSt13basic_ostreamIT_T0_ES7_RKNSt7__cxx1112basic_stringIS4_S5_T1_EE(ptr noundef nonnull align 8 dereferenceable(8) %call2, ptr noundef nonnull align 8 dereferenceable(32) %2)
  call void @_ZNKSt7__cxx1119basic_ostringstreamIcSt11char_traitsIcESaIcEE3strEv(ptr sret(%"class.std::__cxx11::basic_string") align 8 %agg.result, ptr noundef nonnull align 8 dereferenceable(112) %url)
  call void @_ZNSt7__cxx1119basic_ostringstreamIcSt11char_traitsIcESaIcEED1Ev(ptr noundef nonnull align 8 dereferenceable(112) %url) #12
  ret void
}

; Function Attrs: mustprogress nounwind uwtable
define dso_local void @_ZN4node9inspector15FormatWsAddressERKNSt7__cxx1112basic_stringIcSt11char_traitsIcESaIcEEEiS8_b(ptr noalias sret(%"class.std::__cxx11::basic_string") align 8 %agg.result, ptr noundef nonnull align 8 dereferenceable(32) %host, i32 noundef %port, ptr noundef nonnull align 8 dereferenceable(32) %target_id, i1 noundef zeroext %include_protocol) #0 {
entry:
  %result.ptr = alloca ptr, align 8
  %host.addr = alloca ptr, align 8
  %port.addr = alloca i32, align 4
  %target_id.addr = alloca ptr, align 8
  %include_protocol.addr = alloca i8, align 1
  %ref.tmp = alloca %"class.std::__cxx11::basic_string", align 8
  store ptr %agg.result, ptr %result.ptr, align 8
  store ptr %host, ptr %host.addr, align 8
  store i32 %port, ptr %port.addr, align 4
  store ptr %target_id, ptr %target_id.addr, align 8
  %frombool = zext i1 %include_protocol to i8
  store i8 %frombool, ptr %include_protocol.addr, align 1
  %0 = load ptr, ptr %host.addr, align 8
  %1 = load i32, ptr %port.addr, align 4
  call void @_ZN4node9inspector12_GLOBAL__N_114FormatHostPortERKNSt7__cxx1112basic_stringIcSt11char_traitsIcESaIcEEEi(ptr sret(%"class.std::__cxx11::basic_string") align 8 %ref.tmp, ptr noundef nonnull align 8 dereferenceable(32) %0, i32 noundef %1)
  %2 = load ptr, ptr %target_id.addr, align 8
  %3 = load i8, ptr %include_protocol.addr, align 1
  %tobool = trunc i8 %3 to i1
  call void @_ZN4node9inspector12_GLOBAL__N_113FormatAddressERKNSt7__cxx1112basic_stringIcSt11char_traitsIcESaIcEEES9_b(ptr sret(%"class.std::__cxx11::basic_string") align 8 %agg.result, ptr noundef nonnull align 8 dereferenceable(32) %ref.tmp, ptr noundef nonnull align 8 dereferenceable(32) %2, i1 noundef zeroext %tobool)
  call void @_ZNSt7__cxx1112basic_stringIcSt11char_traitsIcESaIcEED1Ev(ptr noundef nonnull align 8 dereferenceable(32) %ref.tmp) #12
  ret void
}