; Function Attrs: mustprogress nounwind uwtable
define dso_local void @_ZN4node9inspector15FormatWsAddressERKNSt7__cxx1112basic_stringIcSt11char_traitsIcESaIcEEEiS8_b(ptr noalias sret(%"class.std::__cxx11::basic_string") align 8 %agg.result, ptr noundef nonnull align 8 dereferenceable(32) %host, i32 noundef %port, ptr noundef nonnull align 8 dereferenceable(32) %target_id, i1 noundef zeroext %include_protocol) local_unnamed_addr #0 {
entry:
  %url.i = alloca %"class.std::__cxx11::basic_ostringstream", align 8
  %ref.tmp = alloca %"class.std::__cxx11::basic_string", align 8
  call fastcc void @_ZN4node9inspector12_GLOBAL__N_114FormatHostPortERKNSt7__cxx1112basic_stringIcSt11char_traitsIcESaIcEEEi(ptr noalias nonnull align 8 %ref.tmp, ptr noundef nonnull align 8 dereferenceable(32) %host, i32 noundef %port)
  call void @llvm.lifetime.start.p0(i64 376, ptr nonnull %url.i)
  call void @_ZNSt7__cxx1119basic_ostringstreamIcSt11char_traitsIcESaIcEEC1Ev(ptr noundef nonnull align 8 dereferenceable(112) %url.i) #19, !noalias !5
  br i1 %include_protocol, label %if.then.i, label %_ZN4node9inspector12_GLOBAL__N_113FormatAddressERKNSt7__cxx1112basic_stringIcSt11char_traitsIcESaIcEEES9_b.exit

if.then.i:                                        ; preds = %entry
  %call.i = call noundef nonnull align 8 dereferenceable(8) ptr @_ZStlsISt11char_traitsIcEERSt13basic_ostreamIcT_ES5_PKc(ptr noundef nonnull align 8 dereferenceable(8) %url.i, ptr noundef nonnull @.str.39) #19, !noalias !5
  br label %_ZN4node9inspector12_GLOBAL__N_113FormatAddressERKNSt7__cxx1112basic_stringIcSt11char_traitsIcESaIcEEES9_b.exit

_ZN4node9inspector12_GLOBAL__N_113FormatAddressERKNSt7__cxx1112basic_stringIcSt11char_traitsIcESaIcEEES9_b.exit: ; preds = %entry, %if.then.i
  %call1.i = call noundef nonnull align 8 dereferenceable(8) ptr @_ZStlsIcSt11char_traitsIcESaIcEERSt13basic_ostreamIT_T0_ES7_RKNSt7__cxx1112basic_stringIS4_S5_T1_EE(ptr noundef nonnull align 8 dereferenceable(8) %url.i, ptr noundef nonnull align 8 dereferenceable(32) %ref.tmp) #19, !noalias !5
  %call2.i = call noundef nonnull align 8 dereferenceable(8) ptr @_ZStlsISt11char_traitsIcEERSt13basic_ostreamIcT_ES5_c(ptr noundef nonnull align 8 dereferenceable(8) %call1.i, i8 noundef signext 47) #19, !noalias !5
  %call3.i = call noundef nonnull align 8 dereferenceable(8) ptr @_ZStlsIcSt11char_traitsIcESaIcEERSt13basic_ostreamIT_T0_ES7_RKNSt7__cxx1112basic_stringIS4_S5_T1_EE(ptr noundef nonnull align 8 dereferenceable(8) %call2.i, ptr noundef nonnull align 8 dereferenceable(32) %target_id) #19, !noalias !5
  call void @_ZNKSt7__cxx1119basic_ostringstreamIcSt11char_traitsIcESaIcEE3strEv(ptr sret(%"class.std::__cxx11::basic_string") align 8 %agg.result, ptr noundef nonnull align 8 dereferenceable(112) %url.i) #19
  call void @_ZNSt7__cxx1119basic_ostringstreamIcSt11char_traitsIcESaIcEED1Ev(ptr noundef nonnull align 8 dereferenceable(112) %url.i) #19
  call void @llvm.lifetime.end.p0(i64 376, ptr nonnull %url.i)
  call void @_ZNSt7__cxx1112basic_stringIcSt11char_traitsIcESaIcEED1Ev(ptr noundef nonnull align 8 dereferenceable(32) %ref.tmp) #19
  ret void
}